; Function Attrs: mustprogress nofree norecurse nosync nounwind willreturn memory(read, inaccessiblemem: none) uwtable
define dso_local noundef zeroext i1 @_ZNK5clang4ento9SubRegion13isSubRegionOfEPKNS0_9MemRegionE(ptr noundef nonnull readonly align 8 dereferenceable(56) %0, ptr noundef readnone %1) unnamed_addr #4 align 2 {
  %3 = icmp eq ptr %0, %1
  br i1 %3, label %._crit_edge, label %.lr.ph

.lr.ph:                                           ; preds = %2, %7
  %.0811 = phi ptr [ %9, %7 ], [ %0, %2 ]
  %4 = getelementptr inbounds nuw i8, ptr %.0811, i64 16
  %5 = load i32, ptr %4, align 8
  %6 = icmp sgt i32 %5, 8
  %.not10 = icmp ne ptr %.0811, null
  %.not.not = and i1 %.not10, %6
  br i1 %.not.not, label %7, label %._crit_edge

7:                                                ; preds = %.lr.ph
  %8 = getelementptr inbounds nuw i8, ptr %.0811, i64 48
  %9 = load ptr, ptr %8, align 8
  %10 = icmp eq ptr %9, %1
  br i1 %10, label %._crit_edge, label %.lr.ph

._crit_edge:                                      ; preds = %7, %.lr.ph, %2
  %.lcssa = phi i1 [ true, %2 ], [ %.not.not, %.lr.ph ], [ %.not.not, %7 ]
  ret i1 %.lcssa
}